; Function Attrs: mustprogress uwtable
define void @_ZN2pb12JavaFeatures8CopyFromERKS0_(ptr noundef nonnull align 8 dereferenceable(32) %this, ptr noundef nonnull readonly align 8 dereferenceable(32) %from) local_unnamed_addr #3 align 2 {
entry:
  %cmp = icmp eq ptr %from, %this
  br i1 %cmp, label %return, label %if.end

if.end:                                           ; preds = %entry
  %0 = getelementptr inbounds i8, ptr %this, i64 16
  %1 = load i32, ptr %0, align 8
  %and.i = and i32 %1, 3
  %tobool.not.i = icmp eq i32 %and.i, 0
  br i1 %tobool.not.i, label %if.end.i, label %if.then.i

if.then.i:                                        ; preds = %if.end
  %legacy_closed_enum_.i = getelementptr inbounds i8, ptr %this, i64 24
  store i64 0, ptr %legacy_closed_enum_.i, align 8
  br label %if.end.i

if.end.i:                                         ; preds = %if.then.i, %if.end
  store i32 0, ptr %0, align 8
  %_internal_metadata_.i = getelementptr inbounds i8, ptr %this, i64 8
  %2 = load i64, ptr %_internal_metadata_.i, align 8
  %and.i.i = and i64 %2, 1
  %tobool.i.not.i = icmp eq i64 %and.i.i, 0
  br i1 %tobool.i.not.i, label %_ZN2pb12JavaFeatures5ClearEv.exit, label %if.then.i.i

if.then.i.i:                                      ; preds = %if.end.i
  tail call void @_ZN6google8protobuf8internal16InternalMetadata7DoClearINS0_15UnknownFieldSetEEEvv(ptr noundef nonnull align 8 dereferenceable(8) %_internal_metadata_.i)
  br label %_ZN2pb12JavaFeatures5ClearEv.exit

_ZN2pb12JavaFeatures5ClearEv.exit:                ; preds = %if.end.i, %if.then.i.i
  %3 = getelementptr inbounds i8, ptr %from, i64 16
  %4 = load i32, ptr %3, align 8
  %and.i.i2 = and i32 %4, 3
  %tobool.not.i.i = icmp eq i32 %and.i.i2, 0
  br i1 %tobool.not.i.i, label %if.end12.i.i, label %if.then.i.i3

if.then.i.i3:                                     ; preds = %_ZN2pb12JavaFeatures5ClearEv.exit
  %and2.i.i = and i32 %4, 1
  %tobool3.not.i.i = icmp eq i32 %and2.i.i, 0
  br i1 %tobool3.not.i.i, label %if.end.i.i, label %if.then4.i.i

if.then4.i.i:                                     ; preds = %if.then.i.i3
  %legacy_closed_enum_.i.i = getelementptr inbounds i8, ptr %from, i64 24
  %5 = load i8, ptr %legacy_closed_enum_.i.i, align 8
  %6 = and i8 %5, 1
  %legacy_closed_enum_6.i.i = getelementptr inbounds i8, ptr %this, i64 24
  store i8 %6, ptr %legacy_closed_enum_6.i.i, align 8
  br label %if.end.i.i

if.end.i.i:                                       ; preds = %if.then4.i.i, %if.then.i.i3
  %and7.i.i = and i32 %4, 2
  %tobool8.not.i.i = icmp eq i32 %and7.i.i, 0
  br i1 %tobool8.not.i.i, label %if.end12.i.i, label %if.then9.i.i

if.then9.i.i:                                     ; preds = %if.end.i.i
  %utf8_validation_.i.i = getelementptr inbounds i8, ptr %from, i64 28
  %7 = load i32, ptr %utf8_validation_.i.i, align 4
  %utf8_validation_10.i.i = getelementptr inbounds i8, ptr %this, i64 28
  store i32 %7, ptr %utf8_validation_10.i.i, align 4
  br label %if.end12.i.i

if.end12.i.i:                                     ; preds = %if.then9.i.i, %if.end.i.i, %_ZN2pb12JavaFeatures5ClearEv.exit
  %8 = load i32, ptr %0, align 8
  %or.i.i = or i32 %8, %4
  store i32 %or.i.i, ptr %0, align 8
  %_internal_metadata_15.i.i = getelementptr inbounds i8, ptr %from, i64 8
  %9 = load i64, ptr %_internal_metadata_15.i.i, align 8
  %and.i27.i.i = and i64 %9, 1
  %tobool.i28.not.i.i = icmp eq i64 %and.i27.i.i, 0
  br i1 %tobool.i28.not.i.i, label %return, label %if.then.i.i.i.i

if.then.i.i.i.i:                                  ; preds = %if.end12.i.i
  %and.i.i.i = and i64 %9, -2
  %10 = inttoptr i64 %and.i.i.i to ptr
  %unknown_fields.i.i.i.i = getelementptr inbounds i8, ptr %10, i64 8
  tail call void @_ZN6google8protobuf8internal16InternalMetadata11DoMergeFromINS0_15UnknownFieldSetEEEvRKT_(ptr noundef nonnull align 8 dereferenceable(8) %_internal_metadata_.i, ptr noundef nonnull align 8 dereferenceable(24) %unknown_fields.i.i.i.i)
  br label %return

return:                                           ; preds = %if.then.i.i.i.i, %if.end12.i.i, %entry
  ret void
}